target datalayout = "e-m:e-p270:32:32-p271:32:32-p272:64:64-i64:64-i128:128-f80:128-n8:16:32:64-S128"
target triple = "x86_64-pc-linux-gnu"

@__const.stbi__shiftsigned.mul_table = private unnamed_addr constant [9 x i32] [i32 0, i32 255, i32 85, i32 73, i32 17, i32 33, i32 65, i32 129, i32 1], align 16

; Function Attrs: nounwind uwtable
define i32 @stbi__shiftsigned(i32 noundef %0, i32 noundef %1, i32 noundef %2) #0 {
  %4 = alloca i32, align 4
  %5 = alloca i32, align 4
  %6 = alloca i32, align 4
  %7 = alloca [9 x i32], align 16
  %8 = alloca [9 x i32], align 16
  store i32 %0, ptr %4, align 4, !tbaa !9
  store i32 %1, ptr %5, align 4, !tbaa !9
  store i32 %2, ptr %6, align 4, !tbaa !9
  call void @llvm.lifetime.start.p0(i64 36, ptr %7) #13
  call void @llvm.memcpy.p0.p0.i64(ptr align 16 %7, ptr align 16 @__const.stbi__shiftsigned.mul_table, i64 36, i1 false)
  call void @llvm.lifetime.start.p0(i64 36, ptr %8) #13
  call void @llvm.memset.p0.i64(ptr align 16 %8, i8 0, i64 36, i1 false)
  %9 = getelementptr inbounds [9 x i32], ptr %8, i32 0, i32 3
  store i32 1, ptr %9, align 4
  %10 = getelementptr inbounds [9 x i32], ptr %8, i32 0, i32 5
  store i32 2, ptr %10, align 4
  %11 = getelementptr inbounds [9 x i32], ptr %8, i32 0, i32 6
  store i32 4, ptr %11, align 8
  %12 = getelementptr inbounds [9 x i32], ptr %8, i32 0, i32 7
  store i32 6, ptr %12, align 4
  %13 = load i32, ptr %5, align 4, !tbaa !9
  %14 = icmp slt i32 %13, 0
  br i1 %14, label %15, label %20

15:                                               ; preds = %3
  %16 = load i32, ptr %5, align 4, !tbaa !9
  %17 = sub nsw i32 0, %16
  %18 = load i32, ptr %4, align 4, !tbaa !9
  %19 = shl i32 %18, %17
  store i32 %19, ptr %4, align 4, !tbaa !9
  br label %24

20:                                               ; preds = %3
  %21 = load i32, ptr %5, align 4, !tbaa !9
  %22 = load i32, ptr %4, align 4, !tbaa !9
  %23 = lshr i32 %22, %21
  store i32 %23, ptr %4, align 4, !tbaa !9
  br label %24

24:                                               ; preds = %20, %15
  %25 = load i32, ptr %6, align 4, !tbaa !9
  %26 = sub nsw i32 8, %25
  %27 = load i32, ptr %4, align 4, !tbaa !9
  %28 = lshr i32 %27, %26
  store i32 %28, ptr %4, align 4, !tbaa !9
  %29 = load i32, ptr %4, align 4, !tbaa !9
  %30 = load i32, ptr %6, align 4, !tbaa !9
  %31 = sext i32 %30 to i64
  %32 = getelementptr inbounds [9 x i32], ptr %7, i64 0, i64 %31
  %33 = load i32, ptr %32, align 4, !tbaa !9
  %34 = mul i32 %29, %33
  %35 = load i32, ptr %6, align 4, !tbaa !9
  %36 = sext i32 %35 to i64
  %37 = getelementptr inbounds [9 x i32], ptr %8, i64 0, i64 %36
  %38 = load i32, ptr %37, align 4, !tbaa !9
  %39 = ashr i32 %34, %38
  call void @llvm.lifetime.end.p0(i64 36, ptr %8) #13
  call void @llvm.lifetime.end.p0(i64 36, ptr %7) #13
  ret i32 %39
}