; Function Attrs: mustprogress nofree norecurse nosync nounwind willreturn memory(none) uwtable
define i32 @stbi__shiftsigned(i32 noundef %0, i32 noundef %1, i32 noundef %2) local_unnamed_addr #0 {
  %4 = alloca [9 x i32], align 16
  call void @llvm.lifetime.start.p0(i64 36, ptr nonnull %4) #37
  call void @llvm.memset.p0.i64(ptr noundef nonnull align 16 dereferenceable(36) %4, i8 0, i64 36, i1 false)
  %5 = getelementptr inbounds nuw i8, ptr %4, i64 12
  store i32 1, ptr %5, align 4
  %6 = getelementptr inbounds nuw i8, ptr %4, i64 20
  store i32 2, ptr %6, align 4
  %7 = getelementptr inbounds nuw i8, ptr %4, i64 24
  store i32 4, ptr %7, align 8
  %8 = getelementptr inbounds nuw i8, ptr %4, i64 28
  store i32 6, ptr %8, align 4
  %9 = icmp slt i32 %1, 0
  %10 = sub nsw i32 0, %1
  %11 = shl i32 %0, %10
  %12 = lshr i32 %0, %1
  %.0 = select i1 %9, i32 %11, i32 %12
  %13 = sub nsw i32 8, %2
  %14 = lshr i32 %.0, %13
  %15 = sext i32 %2 to i64
  %16 = getelementptr inbounds [9 x i32], ptr @__const.stbi__shiftsigned.mul_table, i64 0, i64 %15
  %17 = load i32, ptr %16, align 4, !tbaa !23
  %18 = mul i32 %17, %14
  %19 = getelementptr inbounds [9 x i32], ptr %4, i64 0, i64 %15
  %20 = load i32, ptr %19, align 4, !tbaa !23
  %21 = ashr i32 %18, %20
  call void @llvm.lifetime.end.p0(i64 36, ptr nonnull %4) #37
  ret i32 %21
}